; Function Attrs: nofree norecurse nosync nounwind memory(read, argmem: readwrite, inaccessiblemem: none) uwtable
define void @Emb_ManVecMultiply(ptr noundef readonly captures(none) %0, ptr noundef readonly captures(none) %1, i32 noundef %2, ptr noundef writeonly captures(none) %3) local_unnamed_addr #18 {
  %5 = icmp sgt i32 %2, 0
  br i1 %5, label %.lr.ph, label %._crit_edge

.lr.ph:                                           ; preds = %4
  %wide.trip.count.i = zext nneg i32 %2 to i64
  br label %.lr.ph.preheader.i.us

.lr.ph.preheader.i.us:                            ; preds = %Emb_ManVecMultiplyOne.exit.loopexit.us, %.lr.ph
  %indvars.iv = phi i64 [ %indvars.iv.next, %Emb_ManVecMultiplyOne.exit.loopexit.us ], [ 0, %.lr.ph ]
  %6 = getelementptr inbounds nuw ptr, ptr %0, i64 %indvars.iv
  %7 = load ptr, ptr %6, align 8, !tbaa !117
  br label %.lr.ph.i.us

.lr.ph.i.us:                                      ; preds = %.lr.ph.i.us, %.lr.ph.preheader.i.us
  %indvars.iv.i.us = phi i64 [ 0, %.lr.ph.preheader.i.us ], [ %indvars.iv.next.i.us, %.lr.ph.i.us ]
  %.089.i.us = phi float [ 0.000000e+00, %.lr.ph.preheader.i.us ], [ %12, %.lr.ph.i.us ]
  %8 = getelementptr inbounds nuw float, ptr %7, i64 %indvars.iv.i.us
  %9 = load float, ptr %8, align 4, !tbaa !106
  %10 = getelementptr inbounds nuw float, ptr %1, i64 %indvars.iv.i.us
  %11 = load float, ptr %10, align 4, !tbaa !106
  %12 = tail call float @llvm.fmuladd.f32(float %9, float %11, float %.089.i.us)
  %indvars.iv.next.i.us = add nuw nsw i64 %indvars.iv.i.us, 1
  %exitcond.not.i.us = icmp eq i64 %indvars.iv.next.i.us, %wide.trip.count.i
  br i1 %exitcond.not.i.us, label %Emb_ManVecMultiplyOne.exit.loopexit.us, label %.lr.ph.i.us, !llvm.loop !128

Emb_ManVecMultiplyOne.exit.loopexit.us:           ; preds = %.lr.ph.i.us
  %13 = getelementptr inbounds nuw float, ptr %3, i64 %indvars.iv
  store float %12, ptr %13, align 4, !tbaa !106
  %indvars.iv.next = add nuw nsw i64 %indvars.iv, 1
  %exitcond.not = icmp eq i64 %indvars.iv.next, %wide.trip.count.i
  br i1 %exitcond.not, label %._crit_edge, label %.lr.ph.preheader.i.us, !llvm.loop !130

._crit_edge:                                      ; preds = %Emb_ManVecMultiplyOne.exit.loopexit.us, %4
  ret void
}